target datalayout = "e-m:e-p270:32:32-p271:32:32-p272:64:64-i64:64-i128:128-f80:128-n8:16:32:64-S128"
target triple = "x86_64-unknown-linux-gnu"

%struct.QemuMutex = type { %union.pthread_mutex_t, i8 }
%union.pthread_mutex_t = type { %struct.__pthread_mutex_s }
%struct.__pthread_mutex_s = type { i32, i32, i32, i32, i32, i16, i16, %struct.__pthread_internal_list }
%struct.__pthread_internal_list = type { ptr, ptr }
%struct.BlockDriverState = type { i32, i8, i8, i8, i8, i8, ptr, ptr, ptr, %struct.anon.0, i8, [4096 x i8], [4096 x i8], [4096 x i8], [16 x i8], ptr, [4096 x i8], %struct.BlockLimits, i32, i32, i32, i32, [32 x i8], %union.anon, %union.anon.1, %union.anon.2, i32, [16 x %struct.anon.3], ptr, %struct.anon.4, ptr, ptr, %struct.anon.5, ptr, ptr, i32, ptr, i64, i64, %struct.QemuMutex, %struct.anon.6, %struct.Stat64, i32, i32, i32, i32, i32, i32, %struct.QemuMutex, %struct.anon.7, %struct.CoQueue, i8, i32, i8, %struct.CoMutex, ptr, ptr }
%struct.anon.0 = type { ptr }
%struct.BlockLimits = type { i32, i64, i32, i64, i32, i32, i32, i64, i32, i64, i64, i32, i8, i32, i32, i32, i32, i32, i32, i32 }
%union.anon = type { %struct.QTailQLink }
%struct.QTailQLink = type { ptr, ptr }
%union.anon.1 = type { %struct.QTailQLink }
%union.anon.2 = type { %struct.QTailQLink }
%struct.anon.3 = type { ptr }
%struct.anon.4 = type { ptr }
%struct.anon.5 = type { ptr }
%struct.anon.6 = type { ptr }
%struct.Stat64 = type { i64 }
%struct.anon.7 = type { ptr }
%struct.CoQueue = type { %struct.anon.8 }
%struct.anon.8 = type { ptr, ptr }
%struct.CoMutex = type { i32, ptr, %struct.anon.9, %struct.anon.9, i32, i32, ptr }
%struct.anon.9 = type { ptr }
%struct.MirrorBDSOpaque = type { ptr, i8, i8 }

; Function Attrs: nounwind sspstrong uwtable
define internal void @bdrv_mirror_top_child_perm(ptr noundef %bs, ptr noundef %c, i32 noundef %role, ptr noundef %reopen_queue, i64 noundef %perm, i64 noundef %shared, ptr noundef %nperm, ptr noundef %nshared) #0 {
entry:
  %bs.addr = alloca ptr, align 8
  %c.addr = alloca ptr, align 8
  %role.addr = alloca i32, align 4
  %reopen_queue.addr = alloca ptr, align 8
  %perm.addr = alloca i64, align 8
  %shared.addr = alloca i64, align 8
  %nperm.addr = alloca ptr, align 8
  %nshared.addr = alloca ptr, align 8
  %s = alloca ptr, align 8
  store ptr %bs, ptr %bs.addr, align 8
  store ptr %c, ptr %c.addr, align 8
  store i32 %role, ptr %role.addr, align 4
  store ptr %reopen_queue, ptr %reopen_queue.addr, align 8
  store i64 %perm, ptr %perm.addr, align 8
  store i64 %shared, ptr %shared.addr, align 8
  store ptr %nperm, ptr %nperm.addr, align 8
  store ptr %nshared, ptr %nshared.addr, align 8
  %0 = load ptr, ptr %bs.addr, align 8
  %opaque = getelementptr inbounds %struct.BlockDriverState, ptr %0, i32 0, i32 7
  %1 = load ptr, ptr %opaque, align 8
  store ptr %1, ptr %s, align 8
  %2 = load ptr, ptr %s, align 8
  %stop = getelementptr inbounds %struct.MirrorBDSOpaque, ptr %2, i32 0, i32 1
  %3 = load i8, ptr %stop, align 8
  %tobool = trunc i8 %3 to i1
  br i1 %tobool, label %if.then, label %if.end

if.then:                                          ; preds = %entry
  %4 = load ptr, ptr %nperm.addr, align 8
  store i64 0, ptr %4, align 8
  %5 = load ptr, ptr %nshared.addr, align 8
  store i64 15, ptr %5, align 8
  br label %if.end3

if.end:                                           ; preds = %entry
  %6 = load ptr, ptr %bs.addr, align 8
  %7 = load ptr, ptr %c.addr, align 8
  %8 = load i32, ptr %role.addr, align 4
  %9 = load ptr, ptr %reopen_queue.addr, align 8
  %10 = load i64, ptr %perm.addr, align 8
  %11 = load i64, ptr %shared.addr, align 8
  %12 = load ptr, ptr %nperm.addr, align 8
  %13 = load ptr, ptr %nshared.addr, align 8
  call void @bdrv_default_perms(ptr noundef %6, ptr noundef %7, i32 noundef %8, ptr noundef %9, i64 noundef %10, i64 noundef %11, ptr noundef %12, ptr noundef %13)
  %14 = load ptr, ptr %s, align 8
  %is_commit = getelementptr inbounds %struct.MirrorBDSOpaque, ptr %14, i32 0, i32 2
  %15 = load i8, ptr %is_commit, align 1
  %tobool1 = trunc i8 %15 to i1
  br i1 %tobool1, label %if.then2, label %if.end3

if.then2:                                         ; preds = %if.end
  %16 = load ptr, ptr %nperm.addr, align 8
  %17 = load i64, ptr %16, align 8
  %and = and i64 %17, -2
  store i64 %and, ptr %16, align 8
  %18 = load ptr, ptr %nshared.addr, align 8
  %19 = load i64, ptr %18, align 8
  %or = or i64 %19, 2
  store i64 %or, ptr %18, align 8
  br label %if.end3

if.end3:                                          ; preds = %if.then2, %if.end, %if.then
  ret void
}