; Function Attrs: nounwind sspstrong uwtable
define internal void @bdrv_mirror_top_child_perm(ptr noundef %bs, ptr noundef %c, i32 noundef %role, ptr noundef %reopen_queue, i64 noundef %perm, i64 noundef %shared, ptr noundef %nperm, ptr noundef %nshared) #0 {
entry:
  %opaque = getelementptr inbounds nuw i8, ptr %bs, i64 24
  %0 = load ptr, ptr %opaque, align 8
  %stop = getelementptr inbounds nuw i8, ptr %0, i64 8
  %1 = load i8, ptr %stop, align 8
  %tobool = trunc i8 %1 to i1
  br i1 %tobool, label %if.then, label %if.end

if.then:                                          ; preds = %entry
  store i64 0, ptr %nperm, align 8
  br label %if.end3.sink.split

if.end:                                           ; preds = %entry
  tail call void @bdrv_default_perms(ptr noundef nonnull %bs, ptr noundef %c, i32 noundef %role, ptr noundef %reopen_queue, i64 noundef %perm, i64 noundef %shared, ptr noundef %nperm, ptr noundef %nshared) #12
  %is_commit = getelementptr inbounds nuw i8, ptr %0, i64 9
  %2 = load i8, ptr %is_commit, align 1
  %tobool1 = trunc i8 %2 to i1
  br i1 %tobool1, label %if.then2, label %if.end3

if.then2:                                         ; preds = %if.end
  %3 = load i64, ptr %nperm, align 8
  %and = and i64 %3, -2
  store i64 %and, ptr %nperm, align 8
  %4 = load i64, ptr %nshared, align 8
  %or = or i64 %4, 2
  br label %if.end3.sink.split

if.end3.sink.split:                               ; preds = %if.then, %if.then2
  %or.sink = phi i64 [ %or, %if.then2 ], [ 15, %if.then ]
  store i64 %or.sink, ptr %nshared, align 8
  br label %if.end3

if.end3:                                          ; preds = %if.end3.sink.split, %if.end
  ret void
}